; Function Attrs: mustprogress uwtable
define dso_local void @_ZN20cmComputeLinkDepends14AddLinkObjectsERKSt6vectorI10cmLinkItemSaIS1_EE(ptr noundef nonnull align 8 dereferenceable(744) %0, ptr noundef nonnull readonly align 8 captures(none) dereferenceable(24) %1) local_unnamed_addr #6 align 2 {
  %3 = load ptr, ptr %1, align 8, !tbaa !633
  %4 = getelementptr inbounds nuw i8, ptr %1, i64 8
  %5 = load ptr, ptr %4, align 8, !tbaa !633
  %.not8 = icmp eq ptr %3, %5
  br i1 %.not8, label %._crit_edge, label %.lr.ph

._crit_edge:                                      ; preds = %.lr.ph, %2
  ret void

.lr.ph:                                           ; preds = %2, %.lr.ph
  %.sroa.05.09 = phi ptr [ %6, %.lr.ph ], [ %3, %2 ]
  tail call void @_ZN20cmComputeLinkDepends13AddLinkObjectERK10cmLinkItem(ptr noundef nonnull align 8 dereferenceable(744) %0, ptr noundef nonnull align 8 dereferenceable(104) %.sroa.05.09)
  %6 = getelementptr inbounds nuw i8, ptr %.sroa.05.09, i64 104
  %.not = icmp eq ptr %6, %5
  br i1 %.not, label %._crit_edge, label %.lr.ph
}